target datalayout = "e-m:e-p270:32:32-p271:32:32-p272:64:64-i64:64-i128:128-f80:128-n8:16:32:64-S128"
target triple = "x86_64-unknown-linux-gnu"

%struct.QemuInputHandler = type { ptr, i32, ptr, ptr }
%struct.HIDState = type { %union.anon, i32, i32, i32, i32, i8, i8, ptr, ptr, ptr }
%union.anon = type { %struct.HIDMouseState }
%struct.HIDMouseState = type { [16 x %struct.HIDPointerEvent], i32 }
%struct.HIDPointerEvent = type { i32, i32, i32, i32 }

@hid_keyboard_handler = internal constant %struct.QemuInputHandler { ptr @.str.18, i32 1, ptr @hid_keyboard_event, ptr null }, align 8
@hid_mouse_handler = internal constant %struct.QemuInputHandler { ptr @.str.21, i32 6, ptr @hid_pointer_event, ptr @hid_pointer_sync }, align 8
@hid_tablet_handler = internal constant %struct.QemuInputHandler { ptr @.str.23, i32 10, ptr @hid_pointer_event, ptr @hid_pointer_sync }, align 8

; Function Attrs: nounwind sspstrong uwtable
define dso_local void @hid_init(ptr noundef %hs, i32 noundef %kind, ptr noundef %event) #0 {
entry:
  %hs.addr = alloca ptr, align 8
  %kind.addr = alloca i32, align 4
  %event.addr = alloca ptr, align 8
  store ptr %hs, ptr %hs.addr, align 8
  store i32 %kind, ptr %kind.addr, align 4
  store ptr %event, ptr %event.addr, align 8
  %0 = load i32, ptr %kind.addr, align 4
  %1 = load ptr, ptr %hs.addr, align 8
  %kind1 = getelementptr inbounds %struct.HIDState, ptr %1, i32 0, i32 3
  store i32 %0, ptr %kind1, align 4
  %2 = load ptr, ptr %event.addr, align 8
  %3 = load ptr, ptr %hs.addr, align 8
  %event2 = getelementptr inbounds %struct.HIDState, ptr %3, i32 0, i32 8
  store ptr %2, ptr %event2, align 8
  %4 = load ptr, ptr %hs.addr, align 8
  %kind3 = getelementptr inbounds %struct.HIDState, ptr %4, i32 0, i32 3
  %5 = load i32, ptr %kind3, align 4
  %cmp = icmp eq i32 %5, 3
  br i1 %cmp, label %if.then, label %if.else

if.then:                                          ; preds = %entry
  %6 = load ptr, ptr %hs.addr, align 8
  %call = call ptr @qemu_input_handler_register(ptr noundef %6, ptr noundef @hid_keyboard_handler)
  %7 = load ptr, ptr %hs.addr, align 8
  %s = getelementptr inbounds %struct.HIDState, ptr %7, i32 0, i32 9
  store ptr %call, ptr %s, align 8
  %8 = load ptr, ptr %hs.addr, align 8
  %s4 = getelementptr inbounds %struct.HIDState, ptr %8, i32 0, i32 9
  %9 = load ptr, ptr %s4, align 8
  call void @qemu_input_handler_activate(ptr noundef %9)
  br label %if.end17

if.else:                                          ; preds = %entry
  %10 = load ptr, ptr %hs.addr, align 8
  %kind5 = getelementptr inbounds %struct.HIDState, ptr %10, i32 0, i32 3
  %11 = load i32, ptr %kind5, align 4
  %cmp6 = icmp eq i32 %11, 1
  br i1 %cmp6, label %if.then7, label %if.else10

if.then7:                                         ; preds = %if.else
  %12 = load ptr, ptr %hs.addr, align 8
  %call8 = call ptr @qemu_input_handler_register(ptr noundef %12, ptr noundef @hid_mouse_handler)
  %13 = load ptr, ptr %hs.addr, align 8
  %s9 = getelementptr inbounds %struct.HIDState, ptr %13, i32 0, i32 9
  store ptr %call8, ptr %s9, align 8
  br label %if.end16

if.else10:                                        ; preds = %if.else
  %14 = load ptr, ptr %hs.addr, align 8
  %kind11 = getelementptr inbounds %struct.HIDState, ptr %14, i32 0, i32 3
  %15 = load i32, ptr %kind11, align 4
  %cmp12 = icmp eq i32 %15, 2
  br i1 %cmp12, label %if.then13, label %if.end

if.then13:                                        ; preds = %if.else10
  %16 = load ptr, ptr %hs.addr, align 8
  %call14 = call ptr @qemu_input_handler_register(ptr noundef %16, ptr noundef @hid_tablet_handler)
  %17 = load ptr, ptr %hs.addr, align 8
  %s15 = getelementptr inbounds %struct.HIDState, ptr %17, i32 0, i32 9
  store ptr %call14, ptr %s15, align 8
  br label %if.end

if.end:                                           ; preds = %if.then13, %if.else10
  br label %if.end16

if.end16:                                         ; preds = %if.end, %if.then7
  br label %if.end17

if.end17:                                         ; preds = %if.end16, %if.then
  ret void
}