; Function Attrs: nounwind sspstrong uwtable
define dso_local void @hid_init(ptr noundef initializes((268, 272), (288, 296)) %hs, i32 noundef %kind, ptr noundef %event) local_unnamed_addr #1 {
entry:
  %kind1 = getelementptr inbounds nuw i8, ptr %hs, i64 268
  store i32 %kind, ptr %kind1, align 4
  %event2 = getelementptr inbounds nuw i8, ptr %hs, i64 288
  store ptr %event, ptr %event2, align 8
  switch i32 %kind, label %if.end17 [
    i32 3, label %if.then
    i32 1, label %if.then7
    i32 2, label %if.then13
  ]

if.then:                                          ; preds = %entry
  %call = tail call ptr @qemu_input_handler_register(ptr noundef nonnull %hs, ptr noundef nonnull @hid_keyboard_handler) #11
  %s = getelementptr inbounds nuw i8, ptr %hs, i64 296
  store ptr %call, ptr %s, align 8
  tail call void @qemu_input_handler_activate(ptr noundef %call) #11
  br label %if.end17

if.then7:                                         ; preds = %entry
  %call8 = tail call ptr @qemu_input_handler_register(ptr noundef nonnull %hs, ptr noundef nonnull @hid_mouse_handler) #11
  %s9 = getelementptr inbounds nuw i8, ptr %hs, i64 296
  store ptr %call8, ptr %s9, align 8
  br label %if.end17

if.then13:                                        ; preds = %entry
  %call14 = tail call ptr @qemu_input_handler_register(ptr noundef nonnull %hs, ptr noundef nonnull @hid_tablet_handler) #11
  %s15 = getelementptr inbounds nuw i8, ptr %hs, i64 296
  store ptr %call14, ptr %s15, align 8
  br label %if.end17

if.end17:                                         ; preds = %entry, %if.then7, %if.then13, %if.then
  ret void
}